target datalayout = "e-m:e-p270:32:32-p271:32:32-p272:64:64-i64:64-i128:128-f80:128-n8:16:32:64-S128"
target triple = "x86_64-pc-linux-gnu"

%"class.std::__shared_count" = type { ptr }
%"struct.duckdb::SelectionVector" = type { ptr, %"class.duckdb::shared_ptr.2" }
%"class.duckdb::shared_ptr.2" = type { %"class.std::shared_ptr.3" }
%"class.std::shared_ptr.3" = type { %"class.std::__shared_ptr.4" }
%"class.std::__shared_ptr.4" = type { ptr, %"class.std::__shared_count" }
%"struct.duckdb::ValidityMask" = type { %"struct.duckdb::TemplatedValidityMask" }
%"struct.duckdb::TemplatedValidityMask" = type { ptr, %"class.duckdb::shared_ptr.212", i64 }
%"class.duckdb::shared_ptr.212" = type { %"class.std::shared_ptr.213" }
%"class.std::shared_ptr.213" = type { %"class.std::__shared_ptr.214" }
%"class.std::__shared_ptr.214" = type { ptr, %"class.std::__shared_count" }
%"struct.duckdb::UnifiedVectorFormat" = type { ptr, ptr, %"struct.duckdb::ValidityMask", %"struct.duckdb::SelectionVector" }

; Function Attrs: mustprogress uwtable
define void @_ZN6duckdb12ColumnReader11ApplyFilterERNS_6VectorERKNS_11TableFilterEmRNS_15SelectionVectorERm(ptr noundef nonnull align 8 dereferenceable(104) %0, ptr noundef nonnull align 8 dereferenceable(9) %1, i64 noundef %2, ptr noundef nonnull align 8 dereferenceable(24) %3, ptr noundef nonnull align 8 dereferenceable(8) %4) #4 align 2 personality ptr @__gxx_personality_v0 {
  %6 = alloca ptr, align 8
  %7 = alloca ptr, align 8
  %8 = alloca i64, align 8
  %9 = alloca ptr, align 8
  %10 = alloca ptr, align 8
  %11 = alloca %"struct.duckdb::UnifiedVectorFormat", align 8
  %12 = alloca ptr, align 8
  %13 = alloca i32, align 4
  store ptr %0, ptr %6, align 8, !tbaa !263
  store ptr %1, ptr %7, align 8, !tbaa !340
  store i64 %2, ptr %8, align 8, !tbaa !245
  store ptr %3, ptr %9, align 8, !tbaa !264
  store ptr %4, ptr %10, align 8, !tbaa !365
  call void @llvm.lifetime.start.p0(i64 72, ptr %11) #3
  call void @_ZN6duckdb19UnifiedVectorFormatC1Ev(ptr noundef nonnull align 8 dereferenceable(72) %11)
  %14 = load ptr, ptr %6, align 8, !tbaa !263
  %15 = load i64, ptr %8, align 8, !tbaa !245
  invoke void @_ZN6duckdb6Vector15ToUnifiedFormatEmRNS_19UnifiedVectorFormatE(ptr noundef nonnull align 8 dereferenceable(104) %14, i64 noundef %15, ptr noundef nonnull align 8 dereferenceable(72) %11)
          to label %16 unwind label %24

16:                                               ; preds = %5
  %17 = load ptr, ptr %9, align 8, !tbaa !264
  %18 = load ptr, ptr %6, align 8, !tbaa !263
  %19 = load ptr, ptr %7, align 8, !tbaa !340
  %20 = load i64, ptr %8, align 8, !tbaa !245
  %21 = load ptr, ptr %10, align 8, !tbaa !365
  %22 = invoke noundef i64 @_ZN6duckdb13ColumnSegment15FilterSelectionERNS_15SelectionVectorERNS_6VectorERNS_19UnifiedVectorFormatERKNS_11TableFilterEmRm(ptr noundef nonnull align 8 dereferenceable(24) %17, ptr noundef nonnull align 8 dereferenceable(104) %18, ptr noundef nonnull align 8 dereferenceable(72) %11, ptr noundef nonnull align 8 dereferenceable(9) %19, i64 noundef %20, ptr noundef nonnull align 8 dereferenceable(8) %21)
          to label %23 unwind label %24

23:                                               ; preds = %16
  call void @_ZN6duckdb19UnifiedVectorFormatD2Ev(ptr noundef nonnull align 8 dereferenceable(72) %11) #3
  call void @llvm.lifetime.end.p0(i64 72, ptr %11) #3
  ret void

24:                                               ; preds = %16, %5
  %25 = landingpad { ptr, i32 }
          cleanup
  %26 = extractvalue { ptr, i32 } %25, 0
  store ptr %26, ptr %12, align 8
  %27 = extractvalue { ptr, i32 } %25, 1
  store i32 %27, ptr %13, align 4
  call void @_ZN6duckdb19UnifiedVectorFormatD2Ev(ptr noundef nonnull align 8 dereferenceable(72) %11) #3
  call void @llvm.lifetime.end.p0(i64 72, ptr %11) #3
  br label %28

28:                                               ; preds = %24
  %29 = load ptr, ptr %12, align 8
  %30 = load i32, ptr %13, align 4
  %31 = insertvalue { ptr, i32 } poison, ptr %29, 0
  %32 = insertvalue { ptr, i32 } %31, i32 %30, 1
  resume { ptr, i32 } %32
}