; Function Attrs: mustprogress uwtable
define void @_ZN6duckdb12ColumnReader11ApplyFilterERNS_6VectorERKNS_11TableFilterEmRNS_15SelectionVectorERm(ptr noundef nonnull align 8 dereferenceable(104) %0, ptr noundef nonnull align 8 dereferenceable(9) %1, i64 noundef %2, ptr noundef nonnull align 8 dereferenceable(24) %3, ptr noundef nonnull align 8 dereferenceable(8) %4) local_unnamed_addr #3 align 2 personality ptr @__gxx_personality_v0 {
  %6 = alloca %"struct.duckdb::UnifiedVectorFormat", align 8
  call void @llvm.lifetime.start.p0(i64 72, ptr nonnull %6) #28
  call void @_ZN6duckdb19UnifiedVectorFormatC1Ev(ptr noundef nonnull align 8 dereferenceable(72) %6)
  invoke void @_ZN6duckdb6Vector15ToUnifiedFormatEmRNS_19UnifiedVectorFormatE(ptr noundef nonnull align 8 dereferenceable(104) %0, i64 noundef %2, ptr noundef nonnull align 8 dereferenceable(72) %6)
          to label %7 unwind label %56

7:                                                ; preds = %5
  %8 = invoke noundef i64 @_ZN6duckdb13ColumnSegment15FilterSelectionERNS_15SelectionVectorERNS_6VectorERNS_19UnifiedVectorFormatERKNS_11TableFilterEmRm(ptr noundef nonnull align 8 dereferenceable(24) %3, ptr noundef nonnull align 8 dereferenceable(104) %0, ptr noundef nonnull align 8 dereferenceable(72) %6, ptr noundef nonnull align 8 dereferenceable(9) %1, i64 noundef %2, ptr noundef nonnull align 8 dereferenceable(8) %4)
          to label %9 unwind label %56

9:                                                ; preds = %7
  %10 = getelementptr inbounds nuw i8, ptr %6, i64 64
  %11 = load ptr, ptr %10, align 8, !tbaa !98
  %.not.i.i.i.i.i = icmp eq ptr %11, null
  br i1 %.not.i.i.i.i.i, label %_ZN6duckdb15SelectionVectorD2Ev.exit.i, label %12

12:                                               ; preds = %9
  %13 = getelementptr inbounds nuw i8, ptr %11, i64 8
  %14 = load atomic i64, ptr %13 acquire, align 8
  %15 = icmp eq i64 %14, 4294967297
  %16 = trunc i64 %14 to i32
  br i1 %15, label %17, label %25

17:                                               ; preds = %12
  store i32 0, ptr %13, align 8, !tbaa !99
  %18 = getelementptr inbounds nuw i8, ptr %11, i64 12
  store i32 0, ptr %18, align 4, !tbaa !102
  %19 = load ptr, ptr %11, align 8, !tbaa !3
  %20 = getelementptr inbounds nuw i8, ptr %19, i64 16
  %21 = load ptr, ptr %20, align 8
  call void %21(ptr noundef nonnull align 8 dereferenceable(16) %11) #28
  %22 = load ptr, ptr %11, align 8, !tbaa !3
  %23 = getelementptr inbounds nuw i8, ptr %22, i64 24
  %24 = load ptr, ptr %23, align 8
  call void %24(ptr noundef nonnull align 8 dereferenceable(16) %11) #28
  br label %_ZN6duckdb15SelectionVectorD2Ev.exit.i

25:                                               ; preds = %12
  %26 = load i8, ptr @__libc_single_threaded, align 1, !tbaa !103
  %.not.i.i.i.i.i.i = icmp eq i8 %26, 0
  br i1 %.not.i.i.i.i.i.i, label %29, label %27

27:                                               ; preds = %25
  %28 = add nsw i32 %16, -1
  store i32 %28, ptr %13, align 4, !tbaa !104
  br label %_ZN9__gnu_cxx27__exchange_and_add_dispatchEPii.exit.i.i.i.i.i.i

29:                                               ; preds = %25
  %30 = atomicrmw volatile add ptr %13, i32 -1 acq_rel, align 4
  br label %_ZN9__gnu_cxx27__exchange_and_add_dispatchEPii.exit.i.i.i.i.i.i

_ZN9__gnu_cxx27__exchange_and_add_dispatchEPii.exit.i.i.i.i.i.i: ; preds = %29, %27
  %.0.i.i.i.i.i.i.i = phi i32 [ %16, %27 ], [ %30, %29 ]
  %31 = icmp eq i32 %.0.i.i.i.i.i.i.i, 1
  br i1 %31, label %32, label %_ZN6duckdb15SelectionVectorD2Ev.exit.i, !prof !105

32:                                               ; preds = %_ZN9__gnu_cxx27__exchange_and_add_dispatchEPii.exit.i.i.i.i.i.i
  call void @_ZNSt16_Sp_counted_baseILN9__gnu_cxx12_Lock_policyE2EE24_M_release_last_use_coldEv(ptr noundef nonnull align 8 dereferenceable(16) %11) #28
  br label %_ZN6duckdb15SelectionVectorD2Ev.exit.i

_ZN6duckdb15SelectionVectorD2Ev.exit.i:           ; preds = %32, %_ZN9__gnu_cxx27__exchange_and_add_dispatchEPii.exit.i.i.i.i.i.i, %17, %9
  %33 = getelementptr inbounds nuw i8, ptr %6, i64 32
  %34 = load ptr, ptr %33, align 8, !tbaa !98
  %.not.i.i.i.i1.i = icmp eq ptr %34, null
  br i1 %.not.i.i.i.i1.i, label %_ZN6duckdb19UnifiedVectorFormatD2Ev.exit, label %35

35:                                               ; preds = %_ZN6duckdb15SelectionVectorD2Ev.exit.i
  %36 = getelementptr inbounds nuw i8, ptr %34, i64 8
  %37 = load atomic i64, ptr %36 acquire, align 8
  %38 = icmp eq i64 %37, 4294967297
  %39 = trunc i64 %37 to i32
  br i1 %38, label %40, label %48

40:                                               ; preds = %35
  store i32 0, ptr %36, align 8, !tbaa !99
  %41 = getelementptr inbounds nuw i8, ptr %34, i64 12
  store i32 0, ptr %41, align 4, !tbaa !102
  %42 = load ptr, ptr %34, align 8, !tbaa !3
  %43 = getelementptr inbounds nuw i8, ptr %42, i64 16
  %44 = load ptr, ptr %43, align 8
  call void %44(ptr noundef nonnull align 8 dereferenceable(16) %34) #28
  %45 = load ptr, ptr %34, align 8, !tbaa !3
  %46 = getelementptr inbounds nuw i8, ptr %45, i64 24
  %47 = load ptr, ptr %46, align 8
  call void %47(ptr noundef nonnull align 8 dereferenceable(16) %34) #28
  br label %_ZN6duckdb19UnifiedVectorFormatD2Ev.exit

48:                                               ; preds = %35
  %49 = load i8, ptr @__libc_single_threaded, align 1, !tbaa !103
  %.not.i.i.i.i.i2.i = icmp eq i8 %49, 0
  br i1 %.not.i.i.i.i.i2.i, label %52, label %50

50:                                               ; preds = %48
  %51 = add nsw i32 %39, -1
  store i32 %51, ptr %36, align 4, !tbaa !104
  br label %_ZN9__gnu_cxx27__exchange_and_add_dispatchEPii.exit.i.i.i.i.i3.i

52:                                               ; preds = %48
  %53 = atomicrmw volatile add ptr %36, i32 -1 acq_rel, align 4
  br label %_ZN9__gnu_cxx27__exchange_and_add_dispatchEPii.exit.i.i.i.i.i3.i

_ZN9__gnu_cxx27__exchange_and_add_dispatchEPii.exit.i.i.i.i.i3.i: ; preds = %52, %50
  %.0.i.i.i.i.i.i4.i = phi i32 [ %39, %50 ], [ %53, %52 ]
  %54 = icmp eq i32 %.0.i.i.i.i.i.i4.i, 1
  br i1 %54, label %55, label %_ZN6duckdb19UnifiedVectorFormatD2Ev.exit, !prof !105

55:                                               ; preds = %_ZN9__gnu_cxx27__exchange_and_add_dispatchEPii.exit.i.i.i.i.i3.i
  call void @_ZNSt16_Sp_counted_baseILN9__gnu_cxx12_Lock_policyE2EE24_M_release_last_use_coldEv(ptr noundef nonnull align 8 dereferenceable(16) %34) #28
  br label %_ZN6duckdb19UnifiedVectorFormatD2Ev.exit

_ZN6duckdb19UnifiedVectorFormatD2Ev.exit:         ; preds = %_ZN6duckdb15SelectionVectorD2Ev.exit.i, %40, %_ZN9__gnu_cxx27__exchange_and_add_dispatchEPii.exit.i.i.i.i.i3.i, %55
  call void @llvm.lifetime.end.p0(i64 72, ptr nonnull %6) #28
  ret void

56:                                               ; preds = %7, %5
  %57 = landingpad { ptr, i32 }
          cleanup
  call void @_ZN6duckdb19UnifiedVectorFormatD2Ev(ptr noundef nonnull align 8 dereferenceable(72) %6) #28
  call void @llvm.lifetime.end.p0(i64 72, ptr nonnull %6) #28
  resume { ptr, i32 } %57
}